target datalayout = "e-m:e-p270:32:32-p271:32:32-p272:64:64-i64:64-i128:128-f80:128-n8:16:32:64-S128"
target triple = "x86_64-pc-linux-gnu"

%class.lua_exception = type <{ %"class.std::exception", ptr, i32, [4 x i8] }>
%"class.std::exception" = type { ptr }

@_ZTI13lua_exception = linkonce_odr dso_local constant { ptr, ptr, ptr } { ptr getelementptr inbounds (ptr, ptr @_ZTVN10__cxxabiv120__si_class_type_infoE, i64 2), ptr @_ZTS13lua_exception, ptr @_ZTISt9exception }, comdat, align 8
@_ZTV13lua_exception = linkonce_odr dso_local unnamed_addr constant { [5 x ptr] } { [5 x ptr] [ptr null, ptr @_ZTI13lua_exception, ptr @_ZNSt9exceptionD2Ev, ptr @_ZN13lua_exceptionD0Ev, ptr @_ZNK13lua_exception4whatEv] }, comdat, align 8
@_ZTVSt9exception = available_externally unnamed_addr constant { [5 x ptr] } { [5 x ptr] [ptr null, ptr @_ZTISt9exception, ptr @_ZNSt9exceptionD1Ev, ptr @_ZNSt9exceptionD0Ev, ptr @_ZNKSt9exception4whatEv] }, align 8

; Function Attrs: mustprogress nounwind uwtable
define linkonce_odr dso_local void @_ZNSt9exceptionC2Ev(ptr noundef nonnull align 8 dereferenceable(8) %0) unnamed_addr #1 comdat align 2 {
  %2 = alloca ptr, align 8
  store ptr %0, ptr %2, align 8, !tbaa !27
  %3 = load ptr, ptr %2, align 8
  store ptr getelementptr inbounds inrange(-16, 24) ({ [5 x ptr] }, ptr @_ZTVSt9exception, i32 0, i32 0, i32 2), ptr %3, align 8, !tbaa !29
  ret void
}

; Function Attrs: mustprogress nounwind uwtable
define linkonce_odr dso_local void @_ZN13lua_exceptionC2EP9lua_Statei(ptr noundef nonnull align 8 dereferenceable(20) %0, ptr noundef %1, i32 noundef %2) unnamed_addr #1 comdat align 2 {
  %4 = alloca ptr, align 8
  %5 = alloca ptr, align 8
  %6 = alloca i32, align 4
  store ptr %0, ptr %4, align 8, !tbaa !25
  store ptr %1, ptr %5, align 8, !tbaa !20
  store i32 %2, ptr %6, align 4, !tbaa !23
  %7 = load ptr, ptr %4, align 8
  call void @_ZNSt9exceptionC2Ev(ptr noundef nonnull align 8 dereferenceable(8) %7) #15
  store ptr getelementptr inbounds inrange(-16, 24) ({ [5 x ptr] }, ptr @_ZTV13lua_exception, i32 0, i32 0, i32 2), ptr %7, align 8, !tbaa !29
  %8 = getelementptr inbounds nuw %class.lua_exception, ptr %7, i32 0, i32 1
  %9 = load ptr, ptr %5, align 8, !tbaa !20
  store ptr %9, ptr %8, align 8, !tbaa !34
  %10 = getelementptr inbounds nuw %class.lua_exception, ptr %7, i32 0, i32 2
  %11 = load i32, ptr %6, align 4, !tbaa !23
  store i32 %11, ptr %10, align 8, !tbaa !31
  ret void
}

; Function Attrs: mustprogress noreturn uwtable
define hidden void @_Z10luaD_throwP9lua_Statei(ptr noundef %0, i32 noundef %1) #7 personality ptr @__gxx_personality_v0 {
  %3 = alloca ptr, align 8
  %4 = alloca i32, align 4
  %5 = alloca ptr, align 8
  %6 = alloca i32, align 4
  store ptr %0, ptr %3, align 8, !tbaa !20
  store i32 %1, ptr %4, align 4, !tbaa !23
  %7 = call ptr @__cxa_allocate_exception(i64 24) #15
  %8 = load ptr, ptr %3, align 8, !tbaa !20
  %9 = load i32, ptr %4, align 4, !tbaa !23
  invoke void @_ZN13lua_exceptionC2EP9lua_Statei(ptr noundef nonnull align 8 dereferenceable(20) %7, ptr noundef %8, i32 noundef %9)
          to label %10 unwind label %11

10:                                               ; preds = %2
  call void @__cxa_throw(ptr %7, ptr @_ZTI13lua_exception, ptr @_ZNSt9exceptionD2Ev) #17
  unreachable

11:                                               ; preds = %2
  %12 = landingpad { ptr, i32 }
          cleanup
  %13 = extractvalue { ptr, i32 } %12, 0
  store ptr %13, ptr %5, align 8
  %14 = extractvalue { ptr, i32 } %12, 1
  store i32 %14, ptr %6, align 4
  call void @__cxa_free_exception(ptr %7) #15
  br label %15

15:                                               ; preds = %11
  %16 = load ptr, ptr %5, align 8
  %17 = load i32, ptr %6, align 4
  %18 = insertvalue { ptr, i32 } poison, ptr %16, 0
  %19 = insertvalue { ptr, i32 } %18, i32 %17, 1
  resume { ptr, i32 } %19
}