; Function Attrs: cold mustprogress noreturn uwtable
define hidden void @_Z10luaD_throwP9lua_Statei(ptr noundef %0, i32 noundef %1) local_unnamed_addr #5 personality ptr @__gxx_personality_v0 {
  %3 = tail call ptr @__cxa_allocate_exception(i64 24) #16
  store ptr getelementptr inbounds nuw inrange(-16, 24) (i8, ptr @_ZTV13lua_exception, i64 16), ptr %3, align 8, !tbaa !12
  %4 = getelementptr inbounds nuw i8, ptr %3, i64 8
  store ptr %0, ptr %4, align 8, !tbaa !14
  %5 = getelementptr inbounds nuw i8, ptr %3, i64 16
  store i32 %1, ptr %5, align 8, !tbaa !4
  tail call void @__cxa_throw(ptr nonnull %3, ptr nonnull @_ZTI13lua_exception, ptr nonnull @_ZNSt9exceptionD2Ev) #18
  unreachable
}